; Function Attrs: mustprogress uwtable
define internal { double, double } @_ZL16putp4p_s_forward5PJ_LPP8PJconsts(double %0, double %1, ptr nocapture noundef readonly %2) #0 {
  %4 = getelementptr inbounds i8, ptr %2, i64 88
  %5 = load ptr, ptr %4, align 8
  %6 = load ptr, ptr %2, align 8
  %7 = tail call double @sin(double noundef %1) #5
  %8 = fmul double %7, 0x3FEC48C5FFDCA235
  %9 = tail call noundef double @_Z5aasinP6pj_ctxd(ptr noundef %6, double noundef %8)
  %10 = load double, ptr %5, align 8
  %11 = fmul double %10, %0
  %12 = tail call double @cos(double noundef %9) #5
  %13 = fmul double %11, %12
  %14 = fmul double %9, 0x3FD555555555554F
  %15 = tail call double @cos(double noundef %14) #5
  %16 = fdiv double %13, %15
  %17 = getelementptr inbounds i8, ptr %5, i64 8
  %18 = load double, ptr %17, align 8
  %19 = tail call double @sin(double noundef %14) #5
  %20 = fmul double %18, %19
  %.fca.0.insert = insertvalue { double, double } poison, double %16, 0
  %.fca.1.insert = insertvalue { double, double } %.fca.0.insert, double %20, 1
  ret { double, double } %.fca.1.insert
}